target datalayout = "e-m:e-p270:32:32-p271:32:32-p272:64:64-i64:64-i128:128-f80:128-n8:16:32:64-S128"
target triple = "x86_64-pc-linux-gnu"

; Function Attrs: mustprogress nounwind uwtable
define void @_ZN18duckdb_fastpforlib8internal13__fastunpack4EPKjPm(ptr noalias noundef %0, ptr noalias noundef %1) #0 {
  %3 = alloca ptr, align 8
  %4 = alloca ptr, align 8
  %5 = alloca i32, align 4
  %6 = alloca i32, align 4
  %7 = alloca i32, align 4
  store ptr %0, ptr %3, align 8, !tbaa !16
  store ptr %1, ptr %4, align 8, !tbaa !21
  call void @llvm.lifetime.start.p0(i64 4, ptr %5) #3
  store i32 0, ptr %5, align 4, !tbaa !18
  br label %8

8:                                                ; preds = %32, %2
  %9 = load i32, ptr %5, align 4, !tbaa !18
  %10 = icmp ult i32 %9, 4
  br i1 %10, label %12, label %11

11:                                               ; preds = %8
  store i32 2, ptr %6, align 4
  call void @llvm.lifetime.end.p0(i64 4, ptr %5) #3
  br label %35

12:                                               ; preds = %8
  call void @llvm.lifetime.start.p0(i64 4, ptr %7) #3
  store i32 0, ptr %7, align 4, !tbaa !18
  br label %13

13:                                               ; preds = %26, %12
  %14 = load i32, ptr %7, align 4, !tbaa !18
  %15 = icmp ult i32 %14, 32
  br i1 %15, label %17, label %16

16:                                               ; preds = %13
  store i32 5, ptr %6, align 4
  call void @llvm.lifetime.end.p0(i64 4, ptr %7) #3
  br label %29

17:                                               ; preds = %13
  %18 = load ptr, ptr %3, align 8, !tbaa !16
  %19 = load i32, ptr %18, align 4, !tbaa !18
  %20 = load i32, ptr %7, align 4, !tbaa !18
  %21 = lshr i32 %19, %20
  %22 = urem i32 %21, 16
  %23 = zext i32 %22 to i64
  %24 = load ptr, ptr %4, align 8, !tbaa !21
  %25 = getelementptr inbounds nuw i64, ptr %24, i32 1
  store ptr %25, ptr %4, align 8, !tbaa !21
  store i64 %23, ptr %24, align 8, !tbaa !23
  br label %26

26:                                               ; preds = %17
  %27 = load i32, ptr %7, align 4, !tbaa !18
  %28 = add i32 %27, 4
  store i32 %28, ptr %7, align 4, !tbaa !18
  br label %13, !llvm.loop !47

29:                                               ; preds = %16
  %30 = load ptr, ptr %3, align 8, !tbaa !16
  %31 = getelementptr inbounds nuw i32, ptr %30, i32 1
  store ptr %31, ptr %3, align 8, !tbaa !16
  br label %32

32:                                               ; preds = %29
  %33 = load i32, ptr %5, align 4, !tbaa !18
  %34 = add i32 %33, 1
  store i32 %34, ptr %5, align 4, !tbaa !18
  br label %8, !llvm.loop !48

35:                                               ; preds = %11
  ret void
}