; Function Attrs: mustprogress nofree norecurse nosync nounwind memory(argmem: readwrite) uwtable
define void @_ZN18duckdb_fastpforlib8internal13__fastunpack4EPKjPm(ptr noalias noundef readonly captures(none) %0, ptr noalias noundef writeonly captures(none) %1) local_unnamed_addr #3 {
  br label %.preheader

.preheader:                                       ; preds = %2, %5
  %.0714 = phi i32 [ 0, %2 ], [ %7, %5 ]
  %.0813 = phi ptr [ %1, %2 ], [ %12, %5 ]
  %.0912 = phi ptr [ %0, %2 ], [ %6, %5 ]
  %3 = load i32, ptr %.0912, align 4, !tbaa !7
  br label %8

4:                                                ; preds = %5
  ret void

5:                                                ; preds = %8
  %6 = getelementptr inbounds nuw i8, ptr %.0912, i64 4
  %7 = add nuw nsw i32 %.0714, 1
  %exitcond.not = icmp eq i32 %7, 4
  br i1 %exitcond.not, label %4, label %.preheader, !llvm.loop !5050

8:                                                ; preds = %.preheader, %8
  %.011 = phi i32 [ 0, %.preheader ], [ %13, %8 ]
  %.110 = phi ptr [ %.0813, %.preheader ], [ %12, %8 ]
  %9 = lshr i32 %3, %.011
  %10 = and i32 %9, 15
  %11 = zext nneg i32 %10 to i64
  %12 = getelementptr inbounds nuw i8, ptr %.110, i64 8
  store i64 %11, ptr %.110, align 8, !tbaa !9
  %13 = add nuw nsw i32 %.011, 4
  %14 = icmp samesign ult i32 %.011, 28
  br i1 %14, label %8, label %5, !llvm.loop !5051
}